target datalayout = "e-m:e-p270:32:32-p271:32:32-p272:64:64-i64:64-i128:128-f80:128-n8:16:32:64-S128"
target triple = "x86_64-pc-linux-gnu"

; Function Attrs: mustprogress nounwind uwtable
define internal void @_ZL13tMPI_CHAR_maxPvPKvS1_i(ptr noundef %0, ptr noundef %1, ptr noundef %2, i32 noundef %3) #0 {
  %5 = alloca ptr, align 8
  %6 = alloca ptr, align 8
  %7 = alloca ptr, align 8
  %8 = alloca i32, align 4
  %9 = alloca ptr, align 8
  %10 = alloca ptr, align 8
  %11 = alloca ptr, align 8
  %12 = alloca i32, align 4
  store ptr %0, ptr %5, align 8, !tbaa !3
  store ptr %1, ptr %6, align 8, !tbaa !3
  store ptr %2, ptr %7, align 8, !tbaa !3
  store i32 %3, ptr %8, align 4, !tbaa !7
  call void @llvm.lifetime.start.p0(i64 8, ptr %9) #6
  %13 = load ptr, ptr %6, align 8, !tbaa !3
  store ptr %13, ptr %9, align 8, !tbaa !19
  call void @llvm.lifetime.start.p0(i64 8, ptr %10) #6
  %14 = load ptr, ptr %7, align 8, !tbaa !3
  store ptr %14, ptr %10, align 8, !tbaa !19
  call void @llvm.lifetime.start.p0(i64 8, ptr %11) #6
  %15 = load ptr, ptr %5, align 8, !tbaa !3
  store ptr %15, ptr %11, align 8, !tbaa !19
  call void @llvm.lifetime.start.p0(i64 4, ptr %12) #6
  store i32 0, ptr %12, align 4, !tbaa !7
  br label %16

16:                                               ; preds = %52, %4
  %17 = load i32, ptr %12, align 4, !tbaa !7
  %18 = load i32, ptr %8, align 4, !tbaa !7
  %19 = icmp slt i32 %17, %18
  br i1 %19, label %20, label %55

20:                                               ; preds = %16
  %21 = load ptr, ptr %9, align 8, !tbaa !19
  %22 = load i32, ptr %12, align 4, !tbaa !7
  %23 = sext i32 %22 to i64
  %24 = getelementptr inbounds i8, ptr %21, i64 %23
  %25 = load i8, ptr %24, align 1, !tbaa !21
  %26 = sext i8 %25 to i32
  %27 = load ptr, ptr %10, align 8, !tbaa !19
  %28 = load i32, ptr %12, align 4, !tbaa !7
  %29 = sext i32 %28 to i64
  %30 = getelementptr inbounds i8, ptr %27, i64 %29
  %31 = load i8, ptr %30, align 1, !tbaa !21
  %32 = sext i8 %31 to i32
  %33 = icmp sgt i32 %26, %32
  br i1 %33, label %34, label %40

34:                                               ; preds = %20
  %35 = load ptr, ptr %9, align 8, !tbaa !19
  %36 = load i32, ptr %12, align 4, !tbaa !7
  %37 = sext i32 %36 to i64
  %38 = getelementptr inbounds i8, ptr %35, i64 %37
  %39 = load i8, ptr %38, align 1, !tbaa !21
  br label %46

40:                                               ; preds = %20
  %41 = load ptr, ptr %10, align 8, !tbaa !19
  %42 = load i32, ptr %12, align 4, !tbaa !7
  %43 = sext i32 %42 to i64
  %44 = getelementptr inbounds i8, ptr %41, i64 %43
  %45 = load i8, ptr %44, align 1, !tbaa !21
  br label %46

46:                                               ; preds = %40, %34
  %47 = phi i8 [ %39, %34 ], [ %45, %40 ]
  %48 = load ptr, ptr %11, align 8, !tbaa !19
  %49 = load i32, ptr %12, align 4, !tbaa !7
  %50 = sext i32 %49 to i64
  %51 = getelementptr inbounds i8, ptr %48, i64 %50
  store i8 %47, ptr %51, align 1, !tbaa !21
  br label %52

52:                                               ; preds = %46
  %53 = load i32, ptr %12, align 4, !tbaa !7
  %54 = add nsw i32 %53, 1
  store i32 %54, ptr %12, align 4, !tbaa !7
  br label %16, !llvm.loop !22

55:                                               ; preds = %16
  call void @llvm.lifetime.end.p0(i64 4, ptr %12) #6
  call void @llvm.lifetime.end.p0(i64 8, ptr %11) #6
  call void @llvm.lifetime.end.p0(i64 8, ptr %10) #6
  call void @llvm.lifetime.end.p0(i64 8, ptr %9) #6
  ret void
}